target datalayout = "e-m:e-p270:32:32-p271:32:32-p272:64:64-i64:64-i128:128-f80:128-n8:16:32:64-S128"
target triple = "x86_64-pc-linux-gnu"

%struct.ConfigVariable = type { ptr, ptr, ptr, ptr, i32, i8, i8, ptr }

; Function Attrs: nounwind uwtable
define dso_local void @record_config_file_error(ptr noundef %0, ptr noundef %1, i32 noundef %2, ptr noundef %3, ptr noundef %4) #0 {
  %6 = alloca ptr, align 8
  %7 = alloca ptr, align 8
  %8 = alloca i32, align 4
  %9 = alloca ptr, align 8
  %10 = alloca ptr, align 8
  %11 = alloca ptr, align 8
  store ptr %0, ptr %6, align 8
  store ptr %1, ptr %7, align 8
  store i32 %2, ptr %8, align 4
  store ptr %3, ptr %9, align 8
  store ptr %4, ptr %10, align 8
  call void @llvm.lifetime.start.p0(i64 8, ptr %11) #15
  %12 = call ptr @palloc(i64 noundef 48)
  store ptr %12, ptr %11, align 8
  %13 = load ptr, ptr %11, align 8
  %14 = getelementptr inbounds nuw %struct.ConfigVariable, ptr %13, i32 0, i32 0
  store ptr null, ptr %14, align 8
  %15 = load ptr, ptr %11, align 8
  %16 = getelementptr inbounds nuw %struct.ConfigVariable, ptr %15, i32 0, i32 1
  store ptr null, ptr %16, align 8
  %17 = load ptr, ptr %6, align 8
  %18 = call ptr @pstrdup(ptr noundef %17)
  %19 = load ptr, ptr %11, align 8
  %20 = getelementptr inbounds nuw %struct.ConfigVariable, ptr %19, i32 0, i32 2
  store ptr %18, ptr %20, align 8
  %21 = load ptr, ptr %7, align 8
  %22 = icmp ne ptr %21, null
  br i1 %22, label %23, label %26

23:                                               ; preds = %5
  %24 = load ptr, ptr %7, align 8
  %25 = call ptr @pstrdup(ptr noundef %24)
  br label %27

26:                                               ; preds = %5
  br label %27

27:                                               ; preds = %26, %23
  %28 = phi ptr [ %25, %23 ], [ null, %26 ]
  %29 = load ptr, ptr %11, align 8
  %30 = getelementptr inbounds nuw %struct.ConfigVariable, ptr %29, i32 0, i32 3
  store ptr %28, ptr %30, align 8
  %31 = load i32, ptr %8, align 4
  %32 = load ptr, ptr %11, align 8
  %33 = getelementptr inbounds nuw %struct.ConfigVariable, ptr %32, i32 0, i32 4
  store i32 %31, ptr %33, align 8
  %34 = load ptr, ptr %11, align 8
  %35 = getelementptr inbounds nuw %struct.ConfigVariable, ptr %34, i32 0, i32 5
  store i8 1, ptr %35, align 4
  %36 = load ptr, ptr %11, align 8
  %37 = getelementptr inbounds nuw %struct.ConfigVariable, ptr %36, i32 0, i32 6
  store i8 0, ptr %37, align 1
  %38 = load ptr, ptr %11, align 8
  %39 = getelementptr inbounds nuw %struct.ConfigVariable, ptr %38, i32 0, i32 7
  store ptr null, ptr %39, align 8
  %40 = load ptr, ptr %9, align 8
  %41 = load ptr, ptr %40, align 8
  %42 = icmp eq ptr %41, null
  br i1 %42, label %43, label %46

43:                                               ; preds = %27
  %44 = load ptr, ptr %11, align 8
  %45 = load ptr, ptr %9, align 8
  store ptr %44, ptr %45, align 8
  br label %51

46:                                               ; preds = %27
  %47 = load ptr, ptr %11, align 8
  %48 = load ptr, ptr %10, align 8
  %49 = load ptr, ptr %48, align 8
  %50 = getelementptr inbounds nuw %struct.ConfigVariable, ptr %49, i32 0, i32 7
  store ptr %47, ptr %50, align 8
  br label %51

51:                                               ; preds = %46, %43
  %52 = load ptr, ptr %11, align 8
  %53 = load ptr, ptr %10, align 8
  store ptr %52, ptr %53, align 8
  call void @llvm.lifetime.end.p0(i64 8, ptr %11) #15
  ret void
}