; Function Attrs: nounwind uwtable
define dso_local void @record_config_file_error(ptr noundef %0, ptr noundef %1, i32 noundef %2, ptr noundef captures(none) %3, ptr noundef captures(none) %4) local_unnamed_addr #0 {
  %6 = tail call ptr @palloc(i64 noundef 48) #28
  tail call void @llvm.memset.p0.i64(ptr noundef nonnull align 8 dereferenceable(16) %6, i8 0, i64 16, i1 false)
  %7 = tail call ptr @pstrdup(ptr noundef %0) #28
  %8 = getelementptr inbounds nuw i8, ptr %6, i64 16
  store ptr %7, ptr %8, align 8
  %.not = icmp eq ptr %1, null
  br i1 %.not, label %11, label %9

9:                                                ; preds = %5
  %10 = tail call ptr @pstrdup(ptr noundef nonnull %1) #28
  br label %11

11:                                               ; preds = %5, %9
  %12 = phi ptr [ %10, %9 ], [ null, %5 ]
  %13 = getelementptr inbounds nuw i8, ptr %6, i64 24
  store ptr %12, ptr %13, align 8
  %14 = getelementptr inbounds nuw i8, ptr %6, i64 32
  store i32 %2, ptr %14, align 8
  %15 = getelementptr inbounds nuw i8, ptr %6, i64 36
  store i8 1, ptr %15, align 4
  %16 = getelementptr inbounds nuw i8, ptr %6, i64 37
  store i8 0, ptr %16, align 1
  %17 = getelementptr inbounds nuw i8, ptr %6, i64 40
  store ptr null, ptr %17, align 8
  %18 = load ptr, ptr %3, align 8
  %19 = icmp eq ptr %18, null
  br i1 %19, label %20, label %21

20:                                               ; preds = %11
  store ptr %6, ptr %3, align 8
  br label %24

21:                                               ; preds = %11
  %22 = load ptr, ptr %4, align 8
  %23 = getelementptr inbounds nuw i8, ptr %22, i64 40
  store ptr %6, ptr %23, align 8
  br label %24

24:                                               ; preds = %21, %20
  store ptr %6, ptr %4, align 8
  ret void
}